target datalayout = "e-m:e-p270:32:32-p271:32:32-p272:64:64-i64:64-i128:128-f80:128-n8:16:32:64-S128"
target triple = "x86_64-pc-linux-gnu"

%struct.ParseContext_ = type { %struct.TokenData, i32, %union.SourceSpan, %union.SourceSpan, ptr, %struct.Lexer }
%struct.TokenData = type { ptr, i64, %union.anon.86 }
%union.anon.86 = type { %struct.anon.89 }
%struct.anon.89 = type { %struct.Int128_, i8 }
%struct.Int128_ = type { i64, i64 }
%union.SourceSpan = type { i64 }
%struct.Lexer = type { ptr, ptr, ptr, ptr, i32, i32, ptr, ptr, ptr, %struct.TokenData, %union.SourceSpan, i32, i32 }
%struct.Expr_ = type { ptr, %union.SourceSpan, i16, %union.anon.30 }
%union.anon.30 = type { %struct.ExprAnySwitch }
%struct.ExprAnySwitch = type { i8, %union.anon.32 }
%union.anon.32 = type { %struct.anon.33 }
%struct.anon.33 = type { ptr, %union.SourceSpan, ptr }
%struct.VHeader_ = type { i32, i32, [0 x i8] }
%struct.DesignatorElement_ = type { i8, %union.anon.84, i32, i32 }
%union.anon.84 = type { %struct.anon.85 }
%struct.anon.85 = type { ptr, ptr }

@.str.22 = private unnamed_addr constant [15 x i8] c"Expected '%s'.\00", align 1

; Function Attrs: nounwind uwtable
define internal ptr @vec_new_(i64 noundef %0, i64 noundef %1) #0 {
  %3 = alloca i64, align 8
  %4 = alloca i64, align 8
  %5 = alloca ptr, align 8
  store i64 %0, ptr %3, align 8
  store i64 %1, ptr %4, align 8
  %6 = load i64, ptr %3, align 8
  %7 = load i64, ptr %4, align 8
  %8 = mul i64 %6, %7
  %9 = add i64 %8, 8
  %10 = call ptr @calloc_arena(i64 noundef %9)
  store ptr %10, ptr %5, align 8
  %11 = load i64, ptr %4, align 8
  %12 = trunc i64 %11 to i32
  %13 = load ptr, ptr %5, align 8
  %14 = getelementptr inbounds %struct.VHeader_, ptr %13, i32 0, i32 1
  store i32 %12, ptr %14, align 4
  %15 = load ptr, ptr %5, align 8
  ret ptr %15
}

; Function Attrs: nounwind uwtable
define internal ptr @expand_(ptr noundef %0, i64 noundef %1) #0 {
  %3 = alloca ptr, align 8
  %4 = alloca i64, align 8
  %5 = alloca ptr, align 8
  %6 = alloca ptr, align 8
  %7 = alloca i64, align 8
  store ptr %0, ptr %3, align 8
  store i64 %1, ptr %4, align 8
  %8 = load ptr, ptr %3, align 8
  %9 = icmp ne ptr %8, null
  br i1 %9, label %13, label %10

10:                                               ; preds = %2
  %11 = load i64, ptr %4, align 8
  %12 = call ptr @vec_new_(i64 noundef %11, i64 noundef 8)
  store ptr %12, ptr %5, align 8
  br label %16

13:                                               ; preds = %2
  %14 = load ptr, ptr %3, align 8
  %15 = getelementptr inbounds %struct.VHeader_, ptr %14, i64 -1
  store ptr %15, ptr %5, align 8
  br label %16

16:                                               ; preds = %13, %10
  %17 = load ptr, ptr %5, align 8
  %18 = getelementptr inbounds %struct.VHeader_, ptr %17, i32 0, i32 0
  %19 = load i32, ptr %18, align 4
  %20 = load ptr, ptr %5, align 8
  %21 = getelementptr inbounds %struct.VHeader_, ptr %20, i32 0, i32 1
  %22 = load i32, ptr %21, align 4
  %23 = icmp eq i32 %19, %22
  br i1 %23, label %24, label %49

24:                                               ; preds = %16
  %25 = load i64, ptr %4, align 8
  %26 = load ptr, ptr %5, align 8
  %27 = getelementptr inbounds %struct.VHeader_, ptr %26, i32 0, i32 1
  %28 = load i32, ptr %27, align 4
  %29 = shl i32 %28, 1
  %30 = zext i32 %29 to i64
  %31 = call ptr @vec_new_(i64 noundef %25, i64 noundef %30)
  store ptr %31, ptr %6, align 8
  %32 = load i64, ptr %4, align 8
  %33 = load ptr, ptr %5, align 8
  %34 = getelementptr inbounds %struct.VHeader_, ptr %33, i32 0, i32 1
  %35 = load i32, ptr %34, align 4
  %36 = zext i32 %35 to i64
  %37 = mul i64 %32, %36
  %38 = add i64 %37, 8
  store i64 %38, ptr %7, align 8
  %39 = load ptr, ptr %6, align 8
  %40 = load ptr, ptr %5, align 8
  %41 = load i64, ptr %7, align 8
  call void @llvm.memcpy.p0.p0.i64(ptr align 4 %39, ptr align 4 %40, i64 %41, i1 false)
  %42 = load ptr, ptr %6, align 8
  store ptr %42, ptr %5, align 8
  %43 = load ptr, ptr %5, align 8
  %44 = getelementptr inbounds %struct.VHeader_, ptr %43, i32 0, i32 1
  %45 = load i32, ptr %44, align 4
  %46 = shl i32 %45, 1
  %47 = load ptr, ptr %6, align 8
  %48 = getelementptr inbounds %struct.VHeader_, ptr %47, i32 0, i32 1
  store i32 %46, ptr %48, align 4
  br label %49

49:                                               ; preds = %24, %16
  %50 = load ptr, ptr %5, align 8
  %51 = getelementptr inbounds %struct.VHeader_, ptr %50, i32 0, i32 0
  %52 = load i32, ptr %51, align 4
  %53 = add i32 %52, 1
  store i32 %53, ptr %51, align 4
  %54 = load ptr, ptr %5, align 8
  %55 = getelementptr inbounds %struct.VHeader_, ptr %54, i64 1
  ret ptr %55
}

; Function Attrs: nounwind uwtable
define dso_local ptr @parse_expr(ptr noundef %0) #0 {
  %2 = alloca ptr, align 8
  store ptr %0, ptr %2, align 8
  %3 = load ptr, ptr %2, align 8
  %4 = call ptr @parse_precedence(ptr noundef %3, i32 noundef 1)
  ret ptr %4
}

; Function Attrs: nounwind uwtable
define internal zeroext i1 @parse_param_path(ptr noundef %0, ptr noundef %1) #0 {
  %3 = alloca ptr, align 8
  %4 = alloca i32, align 4
  %5 = alloca i1, align 1
  %6 = alloca ptr, align 8
  %7 = alloca i32, align 4
  %8 = alloca ptr, align 8
  %9 = alloca i32, align 4
  %10 = alloca i32, align 4
  %11 = alloca ptr, align 8
  %12 = alloca ptr, align 8
  %13 = alloca i32, align 4
  %14 = alloca ptr, align 8
  %15 = alloca ptr, align 8
  %16 = alloca ptr, align 8
  %17 = alloca ptr, align 8
  %18 = alloca ptr, align 8
  %19 = alloca ptr, align 8
  %20 = alloca i32, align 4
  %21 = alloca ptr, align 8
  %22 = alloca i32, align 4
  %23 = alloca i1, align 1
  %24 = alloca ptr, align 8
  %25 = alloca ptr, align 8
  %26 = alloca ptr, align 8
  %27 = alloca ptr, align 8
  %28 = alloca ptr, align 8
  %29 = alloca ptr, align 8
  %30 = alloca ptr, align 8
  %31 = alloca ptr, align 8
  %32 = alloca ptr, align 8
  store ptr %0, ptr %24, align 8
  store ptr %1, ptr %25, align 8
  %33 = load ptr, ptr %25, align 8
  store ptr null, ptr %33, align 8
  br label %34

34:                                               ; preds = %201, %143, %2
  %35 = load ptr, ptr %24, align 8
  store ptr %35, ptr %19, align 8
  store i32 18, ptr %20, align 4
  %36 = load ptr, ptr %19, align 8
  %37 = getelementptr inbounds %struct.ParseContext_, ptr %36, i32 0, i32 1
  %38 = load i32, ptr %37, align 8
  %39 = load i32, ptr %20, align 4
  %40 = icmp eq i32 %38, %39
  br i1 %40, label %41, label %144

41:                                               ; preds = %34
  %42 = call ptr @calloc_arena(i64 noundef 32)
  store ptr %42, ptr %26, align 8
  %43 = load ptr, ptr %26, align 8
  %44 = load i8, ptr %43, align 8
  %45 = and i8 %44, -16
  %46 = or i8 %45, 1
  store i8 %46, ptr %43, align 8
  %47 = load ptr, ptr %24, align 8
  store ptr %47, ptr %8, align 8
  store i32 18, ptr %9, align 4
  %48 = load ptr, ptr %8, align 8
  call void @advance(ptr noundef %48) #5
  %49 = load ptr, ptr %24, align 8
  %50 = call ptr @parse_expr(ptr noundef %49)
  store ptr %50, ptr %27, align 8
  %51 = load ptr, ptr %27, align 8
  store ptr %51, ptr %16, align 8
  %52 = load ptr, ptr %16, align 8
  %53 = icmp eq ptr %52, null
  br i1 %53, label %61, label %54

54:                                               ; preds = %41
  %55 = load ptr, ptr %16, align 8
  %56 = getelementptr inbounds %struct.Expr_, ptr %55, i32 0, i32 2
  %57 = load i16, ptr %56, align 8
  %58 = and i16 %57, 255
  %59 = zext i16 %58 to i32
  %60 = icmp ne i32 %59, 0
  br label %61

61:                                               ; preds = %54, %41
  %62 = phi i1 [ true, %41 ], [ %60, %54 ]
  br i1 %62, label %64, label %63

63:                                               ; preds = %61
  store i1 false, ptr %23, align 1
  br label %203

64:                                               ; preds = %61
  %65 = load ptr, ptr %27, align 8
  %66 = load ptr, ptr %26, align 8
  %67 = getelementptr inbounds %struct.DesignatorElement_, ptr %66, i32 0, i32 1
  %68 = getelementptr inbounds %struct.anon.85, ptr %67, i32 0, i32 0
  store ptr %65, ptr %68, align 8
  %69 = load ptr, ptr %24, align 8
  %70 = call zeroext i1 @try_consume(ptr noundef %69, i32 noundef 36)
  br i1 %70, label %71, label %96

71:                                               ; preds = %64
  %72 = load ptr, ptr %24, align 8
  %73 = call ptr @parse_expr(ptr noundef %72)
  store ptr %73, ptr %28, align 8
  %74 = load ptr, ptr %28, align 8
  store ptr %74, ptr %17, align 8
  %75 = load ptr, ptr %17, align 8
  %76 = icmp eq ptr %75, null
  br i1 %76, label %84, label %77

77:                                               ; preds = %71
  %78 = load ptr, ptr %17, align 8
  %79 = getelementptr inbounds %struct.Expr_, ptr %78, i32 0, i32 2
  %80 = load i16, ptr %79, align 8
  %81 = and i16 %80, 255
  %82 = zext i16 %81 to i32
  %83 = icmp ne i32 %82, 0
  br label %84

84:                                               ; preds = %77, %71
  %85 = phi i1 [ true, %71 ], [ %83, %77 ]
  br i1 %85, label %87, label %86

86:                                               ; preds = %84
  store i1 false, ptr %23, align 1
  br label %203

87:                                               ; preds = %84
  %88 = load ptr, ptr %28, align 8
  %89 = load ptr, ptr %26, align 8
  %90 = getelementptr inbounds %struct.DesignatorElement_, ptr %89, i32 0, i32 1
  %91 = getelementptr inbounds %struct.anon.85, ptr %90, i32 0, i32 1
  store ptr %88, ptr %91, align 8
  %92 = load ptr, ptr %26, align 8
  %93 = load i8, ptr %92, align 8
  %94 = and i8 %93, -16
  %95 = or i8 %94, 2
  store i8 %95, ptr %92, align 8
  br label %96

96:                                               ; preds = %87, %64
  br label %97

97:                                               ; preds = %96
  %98 = load ptr, ptr %24, align 8
  store ptr %98, ptr %6, align 8
  store i32 25, ptr %7, align 4
  %99 = load ptr, ptr %6, align 8
  %100 = load i32, ptr %7, align 4
  store ptr %99, ptr %3, align 8
  store i32 %100, ptr %4, align 4
  %101 = load ptr, ptr %3, align 8
  %102 = getelementptr inbounds %struct.ParseContext_, ptr %101, i32 0, i32 1
  %103 = load i32, ptr %102, align 8
  %104 = load i32, ptr %4, align 4
  %105 = icmp eq i32 %103, %104
  br i1 %105, label %106, label %107

106:                                              ; preds = %97
  store i1 true, ptr %5, align 1
  br label %113

107:                                              ; preds = %97
  %108 = load ptr, ptr %6, align 8
  %109 = getelementptr inbounds %struct.ParseContext_, ptr %108, i32 0, i32 2
  %110 = load i32, ptr %7, align 4
  %111 = call ptr @token_type_to_string(i32 noundef %110) #5
  %112 = load i64, ptr %109, align 8
  call void (i64, ptr, ...) @sema_error_at(i64 %112, ptr noundef @.str.22, ptr noundef %111) #5
  store i1 false, ptr %5, align 1
  br label %113

113:                                              ; preds = %107, %106
  %114 = load i1, ptr %5, align 1
  br i1 %114, label %116, label %115

115:                                              ; preds = %113
  store i1 false, ptr %23, align 1
  br label %203

116:                                              ; preds = %113
  %117 = load ptr, ptr %24, align 8
  call void @advance(ptr noundef %117)
  br label %118

118:                                              ; preds = %116
  br label %119

119:                                              ; preds = %118
  %120 = load ptr, ptr %25, align 8
  %121 = load ptr, ptr %120, align 8
  %122 = call ptr @expand_(ptr noundef %121, i64 noundef 8)
  store ptr %122, ptr %29, align 8
  %123 = load ptr, ptr %29, align 8
  %124 = load ptr, ptr %25, align 8
  store ptr %123, ptr %124, align 8
  %125 = load ptr, ptr %26, align 8
  %126 = load ptr, ptr %25, align 8
  %127 = load ptr, ptr %126, align 8
  %128 = load ptr, ptr %25, align 8
  %129 = load ptr, ptr %128, align 8
  store ptr %129, ptr %11, align 8
  %130 = load ptr, ptr %11, align 8
  %131 = icmp ne ptr %130, null
  br i1 %131, label %133, label %132

132:                                              ; preds = %119
  store i32 0, ptr %10, align 4
  br label %138

133:                                              ; preds = %119
  %134 = load ptr, ptr %11, align 8
  store ptr %134, ptr %12, align 8
  %135 = load ptr, ptr %12, align 8
  %136 = getelementptr inbounds %struct.VHeader_, ptr %135, i64 -1
  %137 = load i32, ptr %136, align 4
  store i32 %137, ptr %10, align 4
  br label %138

138:                                              ; preds = %133, %132
  %139 = load i32, ptr %10, align 4
  %140 = sub i32 %139, 1
  %141 = zext i32 %140 to i64
  %142 = getelementptr inbounds ptr, ptr %127, i64 %141
  store ptr %125, ptr %142, align 8
  br label %143

143:                                              ; preds = %138
  br label %34

144:                                              ; preds = %34
  %145 = load ptr, ptr %24, align 8
  store ptr %145, ptr %21, align 8
  store i32 14, ptr %22, align 4
  %146 = load ptr, ptr %21, align 8
  %147 = getelementptr inbounds %struct.ParseContext_, ptr %146, i32 0, i32 1
  %148 = load i32, ptr %147, align 8
  %149 = load i32, ptr %22, align 4
  %150 = icmp eq i32 %148, %149
  br i1 %150, label %151, label %202

151:                                              ; preds = %144
  %152 = load ptr, ptr %24, align 8
  call void @advance(ptr noundef %152)
  %153 = call ptr @calloc_arena(i64 noundef 32)
  store ptr %153, ptr %30, align 8
  %154 = load ptr, ptr %30, align 8
  %155 = load i8, ptr %154, align 8
  %156 = and i8 %155, -16
  %157 = or i8 %156, 0
  store i8 %157, ptr %154, align 8
  %158 = load ptr, ptr %24, align 8
  %159 = call ptr @parse_precedence(ptr noundef %158, i32 noundef 12)
  store ptr %159, ptr %31, align 8
  %160 = load ptr, ptr %31, align 8
  store ptr %160, ptr %18, align 8
  %161 = load ptr, ptr %18, align 8
  %162 = icmp eq ptr %161, null
  br i1 %162, label %170, label %163

163:                                              ; preds = %151
  %164 = load ptr, ptr %18, align 8
  %165 = getelementptr inbounds %struct.Expr_, ptr %164, i32 0, i32 2
  %166 = load i16, ptr %165, align 8
  %167 = and i16 %166, 255
  %168 = zext i16 %167 to i32
  %169 = icmp ne i32 %168, 0
  br label %170

170:                                              ; preds = %163, %151
  %171 = phi i1 [ true, %151 ], [ %169, %163 ]
  br i1 %171, label %173, label %172

172:                                              ; preds = %170
  store i1 false, ptr %23, align 1
  br label %203

173:                                              ; preds = %170
  %174 = load ptr, ptr %31, align 8
  %175 = load ptr, ptr %30, align 8
  %176 = getelementptr inbounds %struct.DesignatorElement_, ptr %175, i32 0, i32 1
  store ptr %174, ptr %176, align 8
  br label %177

177:                                              ; preds = %173
  %178 = load ptr, ptr %25, align 8
  %179 = load ptr, ptr %178, align 8
  %180 = call ptr @expand_(ptr noundef %179, i64 noundef 8)
  store ptr %180, ptr %32, align 8
  %181 = load ptr, ptr %32, align 8
  %182 = load ptr, ptr %25, align 8
  store ptr %181, ptr %182, align 8
  %183 = load ptr, ptr %30, align 8
  %184 = load ptr, ptr %25, align 8
  %185 = load ptr, ptr %184, align 8
  %186 = load ptr, ptr %25, align 8
  %187 = load ptr, ptr %186, align 8
  store ptr %187, ptr %14, align 8
  %188 = load ptr, ptr %14, align 8
  %189 = icmp ne ptr %188, null
  br i1 %189, label %191, label %190

190:                                              ; preds = %177
  store i32 0, ptr %13, align 4
  br label %196

191:                                              ; preds = %177
  %192 = load ptr, ptr %14, align 8
  store ptr %192, ptr %15, align 8
  %193 = load ptr, ptr %15, align 8
  %194 = getelementptr inbounds %struct.VHeader_, ptr %193, i64 -1
  %195 = load i32, ptr %194, align 4
  store i32 %195, ptr %13, align 4
  br label %196

196:                                              ; preds = %191, %190
  %197 = load i32, ptr %13, align 4
  %198 = sub i32 %197, 1
  %199 = zext i32 %198 to i64
  %200 = getelementptr inbounds ptr, ptr %185, i64 %199
  store ptr %183, ptr %200, align 8
  br label %201

201:                                              ; preds = %196
  br label %34

202:                                              ; preds = %144
  store i1 true, ptr %23, align 1
  br label %203

203:                                              ; preds = %202, %172, %115, %86, %63
  %204 = load i1, ptr %23, align 1
  ret i1 %204
}