; Function Attrs: nounwind uwtable
define internal fastcc noundef zeroext i1 @parse_param_path(ptr noundef %0, ptr nocapture noundef %1) unnamed_addr #1 {
  store ptr null, ptr %1, align 8
  %3 = getelementptr inbounds i8, ptr %0, i64 40
  br label %4

4:                                                ; preds = %.backedge, %2
  %5 = load i32, ptr %3, align 8
  switch i32 %5, label %.loopexit [
    i32 18, label %6
    i32 14, label %67
  ]

6:                                                ; preds = %4
  %7 = tail call ptr @calloc_arena(i64 noundef 32) #8
  %8 = load i8, ptr %7, align 8
  %9 = and i8 %8, -16
  %10 = or disjoint i8 %9, 1
  store i8 %10, ptr %7, align 8
  tail call void @advance(ptr noundef nonnull %0) #8
  %11 = tail call fastcc ptr @parse_precedence(ptr noundef nonnull %0, i32 noundef 1)
  %12 = icmp eq ptr %11, null
  br i1 %12, label %.critedge, label %13

13:                                               ; preds = %6
  %14 = getelementptr inbounds i8, ptr %11, i64 16
  %15 = load i16, ptr %14, align 8
  %16 = and i16 %15, 255
  %.not75 = icmp eq i16 %16, 0
  br i1 %.not75, label %.loopexit, label %.critedge

.critedge:                                        ; preds = %6, %13
  %17 = getelementptr inbounds i8, ptr %7, i64 8
  store ptr %11, ptr %17, align 8
  %18 = tail call zeroext i1 @try_consume(ptr noundef nonnull %0, i32 noundef 36) #8
  br i1 %18, label %19, label %30

19:                                               ; preds = %.critedge
  %20 = tail call fastcc ptr @parse_precedence(ptr noundef nonnull %0, i32 noundef 1)
  %21 = icmp eq ptr %20, null
  br i1 %21, label %.critedge2, label %22

22:                                               ; preds = %19
  %23 = getelementptr inbounds i8, ptr %20, i64 16
  %24 = load i16, ptr %23, align 8
  %25 = and i16 %24, 255
  %.not76 = icmp eq i16 %25, 0
  br i1 %.not76, label %.loopexit, label %.critedge2

.critedge2:                                       ; preds = %19, %22
  %26 = getelementptr inbounds i8, ptr %7, i64 16
  store ptr %20, ptr %26, align 8
  %27 = load i8, ptr %7, align 8
  %28 = and i8 %27, -16
  %29 = or disjoint i8 %28, 2
  store i8 %29, ptr %7, align 8
  br label %30

30:                                               ; preds = %.critedge, %.critedge2
  %31 = load i32, ptr %3, align 8
  %32 = icmp eq i32 %31, 25
  br i1 %32, label %.critedge79, label %33

33:                                               ; preds = %30
  %34 = getelementptr inbounds i8, ptr %0, i64 48
  %35 = tail call ptr @token_type_to_string(i32 noundef 25) #8
  %36 = load i64, ptr %34, align 8
  tail call void (i64, ptr, ...) @sema_error_at(i64 %36, ptr noundef nonnull @.str.22, ptr noundef %35) #8
  br label %.loopexit

.critedge79:                                      ; preds = %30
  tail call void @advance(ptr noundef nonnull %0) #8
  %37 = load ptr, ptr %1, align 8
  %.not.i = icmp eq ptr %37, null
  br i1 %.not.i, label %38, label %41

38:                                               ; preds = %.critedge79
  %39 = tail call ptr @calloc_arena(i64 noundef 72) #8
  %40 = getelementptr inbounds i8, ptr %39, i64 4
  store i32 8, ptr %40, align 4
  br label %43

41:                                               ; preds = %.critedge79
  %42 = getelementptr inbounds i8, ptr %37, i64 -8
  %.phi.trans.insert.i = getelementptr inbounds i8, ptr %37, i64 -4
  %.pre.i = load i32, ptr %.phi.trans.insert.i, align 4
  br label %43

43:                                               ; preds = %41, %38
  %44 = phi i32 [ %.pre.i, %41 ], [ 8, %38 ]
  %.0.i = phi ptr [ %42, %41 ], [ %39, %38 ]
  %45 = load i32, ptr %.0.i, align 4
  %46 = icmp eq i32 %45, %44
  br i1 %46, label %47, label %.backedge

47:                                               ; preds = %43
  %48 = getelementptr inbounds i8, ptr %.0.i, i64 4
  %49 = shl i32 %44, 1
  %50 = zext i32 %49 to i64
  %51 = shl nuw nsw i64 %50, 3
  %52 = or disjoint i64 %51, 8
  %53 = tail call ptr @calloc_arena(i64 noundef %52) #8
  %54 = getelementptr inbounds i8, ptr %53, i64 4
  store i32 %49, ptr %54, align 4
  %55 = load i32, ptr %48, align 4
  %56 = zext i32 %55 to i64
  %57 = shl nuw nsw i64 %56, 3
  %58 = add nuw nsw i64 %57, 8
  tail call void @llvm.memcpy.p0.p0.i64(ptr noundef nonnull align 4 dereferenceable(1) %53, ptr noundef nonnull align 4 dereferenceable(1) %.0.i, i64 %58, i1 false)
  br label %.backedge.sink.split

.backedge.sink.split:                             ; preds = %88, %47
  %.sink101 = phi ptr [ %54, %47 ], [ %95, %88 ]
  %.sink97 = phi ptr [ %53, %47 ], [ %94, %88 ]
  %.sink.ph = phi ptr [ %7, %47 ], [ %68, %88 ]
  %59 = load i32, ptr %.sink101, align 4
  %60 = shl i32 %59, 1
  store i32 %60, ptr %.sink101, align 4
  %.pre18.i = load i32, ptr %.sink97, align 4
  br label %.backedge

.backedge:                                        ; preds = %.backedge.sink.split, %43, %84
  %.sink96 = phi i32 [ %86, %84 ], [ %45, %43 ], [ %.pre18.i, %.backedge.sink.split ]
  %.1.i.sink95 = phi ptr [ %.0.i83, %84 ], [ %.0.i, %43 ], [ %.sink97, %.backedge.sink.split ]
  %.sink = phi ptr [ %68, %84 ], [ %7, %43 ], [ %.sink.ph, %.backedge.sink.split ]
  %61 = add i32 %.sink96, 1
  store i32 %61, ptr %.1.i.sink95, align 4
  %62 = getelementptr inbounds i8, ptr %.1.i.sink95, i64 8
  store ptr %62, ptr %1, align 8
  %63 = load i32, ptr %.1.i.sink95, align 4
  %64 = add i32 %63, -1
  %65 = zext i32 %64 to i64
  %66 = getelementptr inbounds ptr, ptr %62, i64 %65
  store ptr %.sink, ptr %66, align 8
  br label %4

67:                                               ; preds = %4
  tail call void @advance(ptr noundef nonnull %0) #8
  %68 = tail call ptr @calloc_arena(i64 noundef 32) #8
  %69 = load i8, ptr %68, align 8
  %70 = and i8 %69, -16
  store i8 %70, ptr %68, align 8
  %71 = tail call fastcc ptr @parse_precedence(ptr noundef nonnull %0, i32 noundef 12)
  %72 = icmp eq ptr %71, null
  br i1 %72, label %.critedge4, label %73

73:                                               ; preds = %67
  %74 = getelementptr inbounds i8, ptr %71, i64 16
  %75 = load i16, ptr %74, align 8
  %76 = and i16 %75, 255
  %.not = icmp eq i16 %76, 0
  br i1 %.not, label %.loopexit, label %.critedge4

.critedge4:                                       ; preds = %67, %73
  %77 = getelementptr inbounds i8, ptr %68, i64 8
  store ptr %71, ptr %77, align 8
  %78 = load ptr, ptr %1, align 8
  %.not.i80 = icmp eq ptr %78, null
  br i1 %.not.i80, label %79, label %82

79:                                               ; preds = %.critedge4
  %80 = tail call ptr @calloc_arena(i64 noundef 72) #8
  %81 = getelementptr inbounds i8, ptr %80, i64 4
  store i32 8, ptr %81, align 4
  br label %84

82:                                               ; preds = %.critedge4
  %83 = getelementptr inbounds i8, ptr %78, i64 -8
  %.phi.trans.insert.i81 = getelementptr inbounds i8, ptr %78, i64 -4
  %.pre.i82 = load i32, ptr %.phi.trans.insert.i81, align 4
  br label %84

84:                                               ; preds = %82, %79
  %85 = phi i32 [ %.pre.i82, %82 ], [ 8, %79 ]
  %.0.i83 = phi ptr [ %83, %82 ], [ %80, %79 ]
  %86 = load i32, ptr %.0.i83, align 4
  %87 = icmp eq i32 %86, %85
  br i1 %87, label %88, label %.backedge

88:                                               ; preds = %84
  %89 = getelementptr inbounds i8, ptr %.0.i83, i64 4
  %90 = shl i32 %85, 1
  %91 = zext i32 %90 to i64
  %92 = shl nuw nsw i64 %91, 3
  %93 = or disjoint i64 %92, 8
  %94 = tail call ptr @calloc_arena(i64 noundef %93) #8
  %95 = getelementptr inbounds i8, ptr %94, i64 4
  store i32 %90, ptr %95, align 4
  %96 = load i32, ptr %89, align 4
  %97 = zext i32 %96 to i64
  %98 = shl nuw nsw i64 %97, 3
  %99 = add nuw nsw i64 %98, 8
  tail call void @llvm.memcpy.p0.p0.i64(ptr noundef nonnull align 4 dereferenceable(1) %94, ptr noundef nonnull align 4 dereferenceable(1) %.0.i83, i64 %99, i1 false)
  br label %.backedge.sink.split

.loopexit:                                        ; preds = %4, %73, %22, %13, %33
  %.067 = phi i1 [ false, %33 ], [ true, %4 ], [ false, %73 ], [ false, %22 ], [ false, %13 ]
  ret i1 %.067
}